; Function Attrs: nofree norecurse nosync nounwind memory(argmem: readwrite) uwtable
define internal void @weight_h264_pixels4_8_c(ptr noundef captures(none) %0, i64 noundef %1, i32 noundef %2, i32 noundef %3, i32 noundef %4, i32 noundef %5) #1 {
  %7 = shl i32 %5, %3
  %.not = icmp eq i32 %3, 0
  %8 = add nsw i32 %3, -1
  %9 = shl nuw i32 1, %8
  %10 = add nsw i32 %7, %9
  %.032 = select i1 %.not, i32 %5, i32 %10
  %11 = icmp sgt i32 %2, 0
  br i1 %11, label %.lr.ph.lver.check, label %._crit_edge

.lr.ph.lver.check:                                ; preds = %6
  %ident.check.not = icmp eq i64 %1, 1
  br i1 %ident.check.not, label %.lr.ph.ph, label %.lr.ph.lver.orig

.lr.ph.lver.orig:                                 ; preds = %.lr.ph.lver.check, %.lr.ph.lver.orig
  %.044.lver.orig = phi ptr [ %44, %.lr.ph.lver.orig ], [ %0, %.lr.ph.lver.check ]
  %.03143.lver.orig = phi i32 [ %43, %.lr.ph.lver.orig ], [ 0, %.lr.ph.lver.check ]
  %12 = load i8, ptr %.044.lver.orig, align 1, !tbaa !42
  %13 = zext i8 %12 to i32
  %14 = mul nsw i32 %4, %13
  %15 = add nsw i32 %14, %.032
  %16 = ashr i32 %15, %3
  %.not.i.lver.orig = icmp ult i32 %16, 256
  %isnotneg.i.lver.orig = icmp sgt i32 %16, -1
  %17 = sext i1 %isnotneg.i.lver.orig to i8
  %18 = trunc nuw i32 %16 to i8
  %.0.i.lver.orig = select i1 %.not.i.lver.orig, i8 %18, i8 %17
  store i8 %.0.i.lver.orig, ptr %.044.lver.orig, align 1, !tbaa !42
  %19 = getelementptr inbounds nuw i8, ptr %.044.lver.orig, i64 1
  %20 = load i8, ptr %19, align 1, !tbaa !42
  %21 = zext i8 %20 to i32
  %22 = mul nsw i32 %4, %21
  %23 = add nsw i32 %22, %.032
  %24 = ashr i32 %23, %3
  %.not.i34.lver.orig = icmp ult i32 %24, 256
  %isnotneg.i35.lver.orig = icmp sgt i32 %24, -1
  %25 = sext i1 %isnotneg.i35.lver.orig to i8
  %26 = trunc nuw i32 %24 to i8
  %.0.i36.lver.orig = select i1 %.not.i34.lver.orig, i8 %26, i8 %25
  store i8 %.0.i36.lver.orig, ptr %19, align 1, !tbaa !42
  %27 = getelementptr inbounds nuw i8, ptr %.044.lver.orig, i64 2
  %28 = load i8, ptr %27, align 1, !tbaa !42
  %29 = zext i8 %28 to i32
  %30 = mul nsw i32 %4, %29
  %31 = add nsw i32 %30, %.032
  %32 = ashr i32 %31, %3
  %.not.i37.lver.orig = icmp ult i32 %32, 256
  %isnotneg.i38.lver.orig = icmp sgt i32 %32, -1
  %33 = sext i1 %isnotneg.i38.lver.orig to i8
  %34 = trunc nuw i32 %32 to i8
  %.0.i39.lver.orig = select i1 %.not.i37.lver.orig, i8 %34, i8 %33
  store i8 %.0.i39.lver.orig, ptr %27, align 1, !tbaa !42
  %35 = getelementptr inbounds nuw i8, ptr %.044.lver.orig, i64 3
  %36 = load i8, ptr %35, align 1, !tbaa !42
  %37 = zext i8 %36 to i32
  %38 = mul nsw i32 %4, %37
  %39 = add nsw i32 %38, %.032
  %40 = ashr i32 %39, %3
  %.not.i40.lver.orig = icmp ult i32 %40, 256
  %isnotneg.i41.lver.orig = icmp sgt i32 %40, -1
  %41 = sext i1 %isnotneg.i41.lver.orig to i8
  %42 = trunc nuw i32 %40 to i8
  %.0.i42.lver.orig = select i1 %.not.i40.lver.orig, i8 %42, i8 %41
  store i8 %.0.i42.lver.orig, ptr %35, align 1, !tbaa !42
  %43 = add nuw nsw i32 %.03143.lver.orig, 1
  %44 = getelementptr inbounds i8, ptr %.044.lver.orig, i64 %1
  %exitcond.not.lver.orig = icmp eq i32 %43, %2
  br i1 %exitcond.not.lver.orig, label %._crit_edge, label %.lr.ph.lver.orig, !llvm.loop !103

.lr.ph.ph:                                        ; preds = %.lr.ph.lver.check
  %scevgep = getelementptr i8, ptr %0, i64 2
  %load_initial = load i8, ptr %scevgep, align 1
  br label %.lr.ph

.lr.ph:                                           ; preds = %.lr.ph.ph, %.lr.ph
  %store_forwarded = phi i8 [ %load_initial, %.lr.ph.ph ], [ %.0.i42, %.lr.ph ]
  %.044 = phi ptr [ %0, %.lr.ph.ph ], [ %76, %.lr.ph ]
  %.03143 = phi i32 [ 0, %.lr.ph.ph ], [ %75, %.lr.ph ]
  %45 = load i8, ptr %.044, align 1, !tbaa !42
  %46 = zext i8 %45 to i32
  %47 = mul nsw i32 %4, %46
  %48 = add nsw i32 %47, %.032
  %49 = ashr i32 %48, %3
  %.not.i = icmp ult i32 %49, 256
  %isnotneg.i = icmp sgt i32 %49, -1
  %50 = sext i1 %isnotneg.i to i8
  %51 = trunc nuw i32 %49 to i8
  %.0.i = select i1 %.not.i, i8 %51, i8 %50
  store i8 %.0.i, ptr %.044, align 1, !tbaa !42
  %52 = getelementptr inbounds nuw i8, ptr %.044, i64 1
  %53 = load i8, ptr %52, align 1, !tbaa !42
  %54 = zext i8 %53 to i32
  %55 = mul nsw i32 %4, %54
  %56 = add nsw i32 %55, %.032
  %57 = ashr i32 %56, %3
  %.not.i34 = icmp ult i32 %57, 256
  %isnotneg.i35 = icmp sgt i32 %57, -1
  %58 = sext i1 %isnotneg.i35 to i8
  %59 = trunc nuw i32 %57 to i8
  %.0.i36 = select i1 %.not.i34, i8 %59, i8 %58
  store i8 %.0.i36, ptr %52, align 1, !tbaa !42
  %60 = getelementptr inbounds nuw i8, ptr %.044, i64 2
  %61 = zext i8 %store_forwarded to i32
  %62 = mul nsw i32 %4, %61
  %63 = add nsw i32 %62, %.032
  %64 = ashr i32 %63, %3
  %.not.i37 = icmp ult i32 %64, 256
  %isnotneg.i38 = icmp sgt i32 %64, -1
  %65 = sext i1 %isnotneg.i38 to i8
  %66 = trunc nuw i32 %64 to i8
  %.0.i39 = select i1 %.not.i37, i8 %66, i8 %65
  store i8 %.0.i39, ptr %60, align 1, !tbaa !42
  %67 = getelementptr inbounds nuw i8, ptr %.044, i64 3
  %68 = load i8, ptr %67, align 1, !tbaa !42
  %69 = zext i8 %68 to i32
  %70 = mul nsw i32 %4, %69
  %71 = add nsw i32 %70, %.032
  %72 = ashr i32 %71, %3
  %.not.i40 = icmp ult i32 %72, 256
  %isnotneg.i41 = icmp sgt i32 %72, -1
  %73 = sext i1 %isnotneg.i41 to i8
  %74 = trunc nuw i32 %72 to i8
  %.0.i42 = select i1 %.not.i40, i8 %74, i8 %73
  store i8 %.0.i42, ptr %67, align 1, !tbaa !42
  %75 = add nuw nsw i32 %.03143, 1
  %76 = getelementptr inbounds nuw i8, ptr %.044, i64 %1
  %exitcond.not = icmp eq i32 %75, %2
  br i1 %exitcond.not, label %._crit_edge, label %.lr.ph, !llvm.loop !103

._crit_edge:                                      ; preds = %.lr.ph.lver.orig, %.lr.ph, %6
  ret void
}